target datalayout = "e-m:e-p270:32:32-p271:32:32-p272:64:64-i64:64-i128:128-f80:128-n8:16:32:64-S128"
target triple = "x86_64-pc-linux-gnu"

%struct.strbuf = type { i64, i64, ptr }
%struct.hashmap = type { ptr, ptr, ptr, i32, i32, i32, i32, i8 }
%struct.index_state = type { ptr, i32, i32, i32, i32, ptr, ptr, ptr, %struct.cache_time, i8, i32, %struct.hashmap, %struct.hashmap, %struct.object_id, ptr, ptr, ptr, ptr, ptr, ptr, ptr }
%struct.cache_time = type { i32, i32 }
%struct.object_id = type { [32 x i8], i32 }

@.str.5 = private unnamed_addr constant [15 x i8] c"sparse-index.c\00", align 1
@.str.13 = private unnamed_addr constant [39 x i8] c"ensure_full_index() must get an index!\00", align 1
@__const.expand_to_path.path_mutable = private unnamed_addr constant %struct.strbuf { i64 0, i64 0, ptr @strbuf_slopbuf }, align 8
@in_expand_to_path = internal global i32 0, align 4

; Function Attrs: inlinehint nounwind uwtable
define internal i64 @strbuf_avail(ptr noundef %0) #5 {
  %2 = alloca ptr, align 8
  store ptr %0, ptr %2, align 8, !tbaa !85
  %3 = load ptr, ptr %2, align 8, !tbaa !85
  %4 = getelementptr inbounds nuw %struct.strbuf, ptr %3, i32 0, i32 0
  %5 = load i64, ptr %4, align 8, !tbaa !87
  %6 = icmp ne i64 %5, 0
  br i1 %6, label %7, label %16

7:                                                ; preds = %1
  %8 = load ptr, ptr %2, align 8, !tbaa !85
  %9 = getelementptr inbounds nuw %struct.strbuf, ptr %8, i32 0, i32 0
  %10 = load i64, ptr %9, align 8, !tbaa !87
  %11 = load ptr, ptr %2, align 8, !tbaa !85
  %12 = getelementptr inbounds nuw %struct.strbuf, ptr %11, i32 0, i32 1
  %13 = load i64, ptr %12, align 8, !tbaa !72
  %14 = sub i64 %10, %13
  %15 = sub i64 %14, 1
  br label %17

16:                                               ; preds = %1
  br label %17

17:                                               ; preds = %16, %7
  %18 = phi i64 [ %15, %7 ], [ 0, %16 ]
  ret i64 %18
}

; Function Attrs: nounwind uwtable
define dso_local void @ensure_full_index(ptr noundef %0) #0 {
  %2 = alloca ptr, align 8
  store ptr %0, ptr %2, align 8, !tbaa !31
  %3 = load ptr, ptr %2, align 8, !tbaa !31
  %4 = icmp ne ptr %3, null
  br i1 %4, label %6, label %5

5:                                                ; preds = %1
  call void (ptr, i32, ptr, ...) @BUG_fl(ptr noundef @.str.5, i32 noundef 461, ptr noundef @.str.13) #11
  unreachable

6:                                                ; preds = %1
  %7 = load ptr, ptr %2, align 8, !tbaa !31
  call void @expand_index(ptr noundef %7, ptr noundef null)
  ret void
}

; Function Attrs: inlinehint nounwind uwtable
define internal void @strbuf_addch(ptr noundef %0, i32 noundef %1) #5 {
  %3 = alloca ptr, align 8
  %4 = alloca i32, align 4
  store ptr %0, ptr %3, align 8, !tbaa !85
  store i32 %1, ptr %4, align 4, !tbaa !9
  %5 = load ptr, ptr %3, align 8, !tbaa !85
  %6 = call i64 @strbuf_avail(ptr noundef %5)
  %7 = icmp ne i64 %6, 0
  br i1 %7, label %10, label %8

8:                                                ; preds = %2
  %9 = load ptr, ptr %3, align 8, !tbaa !85
  call void @strbuf_grow(ptr noundef %9, i64 noundef 1)
  br label %10

10:                                               ; preds = %8, %2
  %11 = load i32, ptr %4, align 4, !tbaa !9
  %12 = trunc i32 %11 to i8
  %13 = load ptr, ptr %3, align 8, !tbaa !85
  %14 = getelementptr inbounds nuw %struct.strbuf, ptr %13, i32 0, i32 2
  %15 = load ptr, ptr %14, align 8, !tbaa !70
  %16 = load ptr, ptr %3, align 8, !tbaa !85
  %17 = getelementptr inbounds nuw %struct.strbuf, ptr %16, i32 0, i32 1
  %18 = load i64, ptr %17, align 8, !tbaa !72
  %19 = add i64 %18, 1
  store i64 %19, ptr %17, align 8, !tbaa !72
  %20 = getelementptr inbounds nuw i8, ptr %15, i64 %18
  store i8 %12, ptr %20, align 1, !tbaa !84
  %21 = load ptr, ptr %3, align 8, !tbaa !85
  %22 = getelementptr inbounds nuw %struct.strbuf, ptr %21, i32 0, i32 2
  %23 = load ptr, ptr %22, align 8, !tbaa !70
  %24 = load ptr, ptr %3, align 8, !tbaa !85
  %25 = getelementptr inbounds nuw %struct.strbuf, ptr %24, i32 0, i32 1
  %26 = load i64, ptr %25, align 8, !tbaa !72
  %27 = getelementptr inbounds nuw i8, ptr %23, i64 %26
  store i8 0, ptr %27, align 1, !tbaa !84
  ret void
}

; Function Attrs: nounwind uwtable
define dso_local void @expand_to_path(ptr noundef %0, ptr noundef %1, i64 noundef %2, i32 noundef %3) #0 {
  %5 = alloca ptr, align 8
  %6 = alloca ptr, align 8
  %7 = alloca i64, align 8
  %8 = alloca i32, align 4
  %9 = alloca %struct.strbuf, align 8
  %10 = alloca i64, align 8
  %11 = alloca i32, align 4
  %12 = alloca i8, align 1
  %13 = alloca ptr, align 8
  store ptr %0, ptr %5, align 8, !tbaa !31
  store ptr %1, ptr %6, align 8, !tbaa !59
  store i64 %2, ptr %7, align 8, !tbaa !60
  store i32 %3, ptr %8, align 4, !tbaa !9
  call void @llvm.lifetime.start.p0(i64 24, ptr %9) #9
  call void @llvm.memcpy.p0.p0.i64(ptr align 8 %9, ptr align 8 @__const.expand_to_path.path_mutable, i64 24, i1 false)
  call void @llvm.lifetime.start.p0(i64 8, ptr %10) #9
  %14 = load i32, ptr @in_expand_to_path, align 4, !tbaa !9
  %15 = icmp ne i32 %14, 0
  br i1 %15, label %16, label %17

16:                                               ; preds = %4
  store i32 1, ptr %11, align 4
  br label %78

17:                                               ; preds = %4
  %18 = load ptr, ptr %5, align 8, !tbaa !31
  %19 = getelementptr inbounds nuw %struct.index_state, ptr %18, i32 0, i32 10
  %20 = load i32, ptr %19, align 4, !tbaa !49
  %21 = icmp ne i32 %20, 0
  br i1 %21, label %23, label %22

22:                                               ; preds = %17
  store i32 1, ptr %11, align 4
  br label %78

23:                                               ; preds = %17
  store i32 1, ptr @in_expand_to_path, align 4, !tbaa !9
  %24 = load ptr, ptr %5, align 8, !tbaa !31
  %25 = load ptr, ptr %6, align 8, !tbaa !59
  %26 = load i64, ptr %7, align 8, !tbaa !60
  %27 = trunc i64 %26 to i32
  %28 = load i32, ptr %8, align 4, !tbaa !9
  %29 = call ptr @index_file_exists(ptr noundef %24, ptr noundef %25, i32 noundef %27, i32 noundef %28)
  %30 = icmp ne ptr %29, null
  br i1 %30, label %31, label %32

31:                                               ; preds = %23
  br label %77

32:                                               ; preds = %23
  %33 = load ptr, ptr %6, align 8, !tbaa !59
  %34 = load i64, ptr %7, align 8, !tbaa !60
  call void @strbuf_add(ptr noundef %9, ptr noundef %33, i64 noundef %34)
  call void @strbuf_addch(ptr noundef %9, i32 noundef 47)
  store i64 0, ptr %10, align 8, !tbaa !60
  br label %35

35:                                               ; preds = %75, %32
  %36 = load i64, ptr %10, align 8, !tbaa !60
  %37 = load i64, ptr %7, align 8, !tbaa !60
  %38 = icmp ult i64 %36, %37
  br i1 %38, label %39, label %76

39:                                               ; preds = %35
  call void @llvm.lifetime.start.p0(i64 1, ptr %12) #9
  call void @llvm.lifetime.start.p0(i64 8, ptr %13) #9
  %40 = getelementptr inbounds nuw %struct.strbuf, ptr %9, i32 0, i32 2
  %41 = load ptr, ptr %40, align 8, !tbaa !70
  %42 = load i64, ptr %10, align 8, !tbaa !60
  %43 = getelementptr inbounds nuw i8, ptr %41, i64 %42
  %44 = call ptr @strchr(ptr noundef %43, i32 noundef 47) #10
  store ptr %44, ptr %13, align 8, !tbaa !59
  %45 = load ptr, ptr %13, align 8, !tbaa !59
  %46 = icmp ne ptr %45, null
  br i1 %46, label %48, label %47

47:                                               ; preds = %39
  store i32 4, ptr %11, align 4
  br label %73

48:                                               ; preds = %39
  %49 = load ptr, ptr %13, align 8, !tbaa !59
  %50 = getelementptr inbounds nuw i8, ptr %49, i32 1
  store ptr %50, ptr %13, align 8, !tbaa !59
  %51 = load ptr, ptr %13, align 8, !tbaa !59
  %52 = load i8, ptr %51, align 1, !tbaa !84
  store i8 %52, ptr %12, align 1, !tbaa !84
  %53 = load ptr, ptr %13, align 8, !tbaa !59
  store i8 0, ptr %53, align 1, !tbaa !84
  %54 = load ptr, ptr %13, align 8, !tbaa !59
  %55 = getelementptr inbounds nuw %struct.strbuf, ptr %9, i32 0, i32 2
  %56 = load ptr, ptr %55, align 8, !tbaa !70
  %57 = ptrtoint ptr %54 to i64
  %58 = ptrtoint ptr %56 to i64
  %59 = sub i64 %57, %58
  store i64 %59, ptr %10, align 8, !tbaa !60
  %60 = load ptr, ptr %5, align 8, !tbaa !31
  %61 = getelementptr inbounds nuw %struct.strbuf, ptr %9, i32 0, i32 2
  %62 = load ptr, ptr %61, align 8, !tbaa !70
  %63 = load i64, ptr %10, align 8, !tbaa !60
  %64 = trunc i64 %63 to i32
  %65 = load i32, ptr %8, align 4, !tbaa !9
  %66 = call ptr @index_file_exists(ptr noundef %60, ptr noundef %62, i32 noundef %64, i32 noundef %65)
  %67 = icmp ne ptr %66, null
  br i1 %67, label %68, label %70

68:                                               ; preds = %48
  %69 = load ptr, ptr %5, align 8, !tbaa !31
  call void @ensure_full_index(ptr noundef %69)
  store i32 4, ptr %11, align 4
  br label %73

70:                                               ; preds = %48
  %71 = load i8, ptr %12, align 1, !tbaa !84
  %72 = load ptr, ptr %13, align 8, !tbaa !59
  store i8 %71, ptr %72, align 1, !tbaa !84
  store i32 0, ptr %11, align 4
  br label %73

73:                                               ; preds = %70, %68, %47
  call void @llvm.lifetime.end.p0(i64 8, ptr %13) #9
  call void @llvm.lifetime.end.p0(i64 1, ptr %12) #9
  %74 = load i32, ptr %11, align 4
  switch i32 %74, label %81 [
    i32 0, label %75
    i32 4, label %76
  ]

75:                                               ; preds = %73
  br label %35, !llvm.loop !97

76:                                               ; preds = %73, %35
  br label %77

77:                                               ; preds = %76, %31
  call void @strbuf_release(ptr noundef %9)
  store i32 0, ptr @in_expand_to_path, align 4, !tbaa !9
  store i32 0, ptr %11, align 4
  br label %78

78:                                               ; preds = %77, %22, %16
  call void @llvm.lifetime.end.p0(i64 8, ptr %10) #9
  call void @llvm.lifetime.end.p0(i64 24, ptr %9) #9
  %79 = load i32, ptr %11, align 4
  switch i32 %79, label %81 [
    i32 0, label %80
    i32 1, label %80
  ]

80:                                               ; preds = %78, %78
  ret void

81:                                               ; preds = %78, %73
  unreachable
}