; Function Attrs: nounwind uwtable
define dso_local void @expand_to_path(ptr noundef %0, ptr noundef %1, i64 noundef %2, i32 noundef %3) local_unnamed_addr #0 {
  %5 = alloca %struct.strbuf, align 8
  call void @llvm.lifetime.start.p0(i64 24, ptr nonnull %5) #12
  call void @llvm.memcpy.p0.p0.i64(ptr noundef nonnull align 8 dereferenceable(24) %5, ptr noundef nonnull align 8 dereferenceable(24) @__const.convert_to_sparse_rec.child_path, i64 24, i1 false)
  %.b = load i1, ptr @in_expand_to_path, align 4
  br i1 %.b, label %38, label %6

6:                                                ; preds = %4
  %7 = getelementptr inbounds nuw i8, ptr %0, i64 60
  %8 = load i32, ptr %7, align 4, !tbaa !47
  %.not = icmp eq i32 %8, 0
  br i1 %.not, label %38, label %9

9:                                                ; preds = %6
  store i1 true, ptr @in_expand_to_path, align 4
  %10 = trunc i64 %2 to i32
  %11 = tail call ptr @index_file_exists(ptr noundef nonnull %0, ptr noundef %1, i32 noundef %10, i32 noundef %3) #12
  %.not23 = icmp eq ptr %11, null
  br i1 %.not23, label %12, label %.thread

12:                                               ; preds = %9
  call void @strbuf_add(ptr noundef nonnull %5, ptr noundef %1, i64 noundef %2) #12
  %13 = load i64, ptr %5, align 8, !tbaa !78
  %.not.i.i = icmp eq i64 %13, 0
  br i1 %.not.i.i, label %strbuf_avail.exit.thread.i, label %strbuf_avail.exit.i

strbuf_avail.exit.i:                              ; preds = %12
  %14 = getelementptr inbounds nuw i8, ptr %5, i64 8
  %15 = load i64, ptr %14, align 8, !tbaa !59
  %.neg.i = add i64 %15, 1
  %.not.i = icmp eq i64 %13, %.neg.i
  br i1 %.not.i, label %strbuf_avail.exit.thread.i, label %strbuf_addch.exit

strbuf_avail.exit.thread.i:                       ; preds = %strbuf_avail.exit.i, %12
  call void @strbuf_grow(ptr noundef nonnull %5, i64 noundef 1) #12
  %.phi.trans.insert.i = getelementptr inbounds nuw i8, ptr %5, i64 8
  %.pre.i = load i64, ptr %.phi.trans.insert.i, align 8, !tbaa !59
  %.pre7.i = add i64 %.pre.i, 1
  br label %strbuf_addch.exit

strbuf_addch.exit:                                ; preds = %strbuf_avail.exit.i, %strbuf_avail.exit.thread.i
  %.pre-phi.i = phi i64 [ %.pre7.i, %strbuf_avail.exit.thread.i ], [ %.neg.i, %strbuf_avail.exit.i ]
  %16 = phi i64 [ %.pre.i, %strbuf_avail.exit.thread.i ], [ %15, %strbuf_avail.exit.i ]
  %17 = getelementptr inbounds nuw i8, ptr %5, i64 16
  %18 = load ptr, ptr %17, align 8, !tbaa !61
  %19 = getelementptr inbounds nuw i8, ptr %5, i64 8
  store i64 %.pre-phi.i, ptr %19, align 8, !tbaa !59
  %20 = getelementptr inbounds nuw i8, ptr %18, i64 %16
  store i8 47, ptr %20, align 1, !tbaa !62
  %21 = load ptr, ptr %17, align 8, !tbaa !61
  %22 = load i64, ptr %19, align 8, !tbaa !59
  %23 = getelementptr inbounds nuw i8, ptr %21, i64 %22
  store i8 0, ptr %23, align 1, !tbaa !62
  %.not32 = icmp eq i64 %2, 0
  br i1 %.not32, label %.thread, label %.lr.ph

.lr.ph:                                           ; preds = %strbuf_addch.exit, %36
  %.030 = phi i64 [ %33, %36 ], [ 0, %strbuf_addch.exit ]
  %24 = load ptr, ptr %17, align 8, !tbaa !61
  %25 = getelementptr inbounds nuw i8, ptr %24, i64 %.030
  %26 = call ptr @strchr(ptr noundef nonnull dereferenceable(1) %25, i32 noundef 47) #13
  %.not24 = icmp eq ptr %26, null
  br i1 %.not24, label %.thread, label %27

27:                                               ; preds = %.lr.ph
  %28 = getelementptr inbounds nuw i8, ptr %26, i64 1
  %29 = load i8, ptr %28, align 1, !tbaa !62
  store i8 0, ptr %28, align 1, !tbaa !62
  %30 = load ptr, ptr %17, align 8, !tbaa !61
  %31 = ptrtoint ptr %28 to i64
  %32 = ptrtoint ptr %30 to i64
  %33 = sub i64 %31, %32
  %34 = trunc i64 %33 to i32
  %35 = call ptr @index_file_exists(ptr noundef nonnull %0, ptr noundef %30, i32 noundef %34, i32 noundef %3) #12
  %.not25 = icmp eq ptr %35, null
  br i1 %.not25, label %36, label %ensure_full_index.exit

ensure_full_index.exit:                           ; preds = %27
  call void @expand_index(ptr noundef nonnull %0, ptr noundef null)
  br label %.thread

36:                                               ; preds = %27
  store i8 %29, ptr %28, align 1, !tbaa !62
  %37 = icmp ult i64 %33, %2
  br i1 %37, label %.lr.ph, label %.thread

.thread:                                          ; preds = %36, %.lr.ph, %strbuf_addch.exit, %ensure_full_index.exit, %9
  call void @strbuf_release(ptr noundef nonnull %5) #12
  store i1 false, ptr @in_expand_to_path, align 4
  br label %38

38:                                               ; preds = %6, %4, %.thread
  call void @llvm.lifetime.end.p0(i64 24, ptr nonnull %5) #12
  ret void
}